# SymbolsHelper-Confirmed: 5.15.2 amd64
libQt5PositioningQuick.so.5 libqt5positioningquick5 #MINVER#
* Build-Depends-Package: qtpositioning5-dev
 Qt_5.0@Qt_5.0 5.15.2
 Qt_5.10@Qt_5.10 5.15.2
 Qt_5.11@Qt_5.11 5.15.2
 Qt_5.12@Qt_5.12 5.15.2
 Qt_5.13@Qt_5.13 5.15.2
 Qt_5.14@Qt_5.14 5.15.2
 Qt_5.15@Qt_5.15 5.15.2
 Qt_5.1@Qt_5.1 5.15.2
 Qt_5.2@Qt_5.2 5.15.2
 Qt_5.3@Qt_5.3 5.15.2
 Qt_5.4@Qt_5.4 5.15.2
 Qt_5.5@Qt_5.5 5.15.2
 Qt_5.6@Qt_5.6 5.15.2
 Qt_5.7@Qt_5.7 5.15.2
 Qt_5.8@Qt_5.8 5.15.2
 Qt_5.9@Qt_5.9 5.15.2
 Qt_5@Qt_5 5.15.2
 Qt_5_PRIVATE_API@Qt_5_PRIVATE_API 5.15.2
 _Z24q_coordinateInterpolatorRK14QGeoCoordinateS1_d@Qt_5 5.15.2
 _ZN20QDeclarativePosition10coordinateEv@Qt_5_PRIVATE_API 5.15.2
 _ZN20QDeclarativePosition11qt_metacallEN11QMetaObject4CallEiPPv@Qt_5_PRIVATE_API 5.15.2
 _ZN20QDeclarativePosition11qt_metacastEPKc@Qt_5_PRIVATE_API 5.15.2
 _ZN20QDeclarativePosition11setPositionERK16QGeoPositionInfo@Qt_5_PRIVATE_API 5.15.2
 _ZN20QDeclarativePosition12speedChangedEv@Qt_5_PRIVATE_API 5.15.2
 _ZN20QDeclarativePosition16directionChangedEv@Qt_5_PRIVATE_API 5.15.2
 _ZN20QDeclarativePosition16staticMetaObjectE@Qt_5_PRIVATE_API 5.15.2
 _ZN20QDeclarativePosition16timestampChangedEv@Qt_5_PRIVATE_API 5.15.2
 _ZN20QDeclarativePosition17coordinateChangedEv@Qt_5_PRIVATE_API 5.15.2
 _ZN20QDeclarativePosition17speedValidChangedEv@Qt_5_PRIVATE_API 5.15.2
 _ZN20QDeclarativePosition19setVerticalAccuracyEd@Qt_5_PRIVATE_API 5.15.2
 _ZN20QDeclarativePosition20altitudeValidChangedEv@Qt_5_PRIVATE_API 5.15.2
 _ZN20QDeclarativePosition20latitudeValidChangedEv@Qt_5_PRIVATE_API 5.15.2
 _ZN20QDeclarativePosition20verticalSpeedChangedEv@Qt_5_PRIVATE_API 5.15.2
 _ZN20QDeclarativePosition21directionValidChangedEv@Qt_5_PRIVATE_API 5.15.2
 _ZN20QDeclarativePosition21longitudeValidChangedEv@Qt_5_PRIVATE_API 5.15.2
 _ZN20QDeclarativePosition21setHorizontalAccuracyEd@Qt_5_PRIVATE_API 5.15.2
 _ZN20QDeclarativePosition23verticalAccuracyChangedEv@Qt_5_PRIVATE_API 5.15.2
 _ZN20QDeclarativePosition24magneticVariationChangedEv@Qt_5_PRIVATE_API 5.15.2
 _ZN20QDeclarativePosition25horizontalAccuracyChangedEv@Qt_5_PRIVATE_API 5.15.2
 _ZN20QDeclarativePosition25verticalSpeedValidChangedEv@Qt_5_PRIVATE_API 5.15.2
 _ZN20QDeclarativePosition28verticalAccuracyValidChangedEv@Qt_5_PRIVATE_API 5.15.2
 _ZN20QDeclarativePosition29magneticVariationValidChangedEv@Qt_5_PRIVATE_API 5.15.2
 _ZN20QDeclarativePosition30horizontalAccuracyValidChangedEv@Qt_5_PRIVATE_API 5.15.2
 _ZN20QDeclarativePositionC1EP7QObject@Qt_5_PRIVATE_API 5.15.2
 _ZN20QDeclarativePositionC2EP7QObject@Qt_5_PRIVATE_API 5.15.2
 _ZN20QDeclarativePositionD0Ev@Qt_5_PRIVATE_API 5.15.2
 _ZN20QDeclarativePositionD1Ev@Qt_5_PRIVATE_API 5.15.2
 _ZN20QDeclarativePositionD2Ev@Qt_5_PRIVATE_API 5.15.2
 _ZN22QDeclarativeGeoAddress10setAddressERK11QGeoAddress@Qt_5_PRIVATE_API 5.15.2
 _ZN22QDeclarativeGeoAddress10setCountryERK7QString@Qt_5_PRIVATE_API 5.15.2
 _ZN22QDeclarativeGeoAddress11cityChangedEv@Qt_5_PRIVATE_API 5.15.2
 _ZN22QDeclarativeGeoAddress11qt_metacallEN11QMetaObject4CallEiPPv@Qt_5_PRIVATE_API 5.15.2
 _ZN22QDeclarativeGeoAddress11qt_metacastEPKc@Qt_5_PRIVATE_API 5.15.2
 _ZN22QDeclarativeGeoAddress11setDistrictERK7QString@Qt_5_PRIVATE_API 5.15.2
 _ZN22QDeclarativeGeoAddress11textChangedEv@Qt_5_PRIVATE_API 5.15.2
 _ZN22QDeclarativeGeoAddress12stateChangedEv@Qt_5_PRIVATE_API 5.15.2
 _ZN22QDeclarativeGeoAddress13countyChangedEv@Qt_5_PRIVATE_API 5.15.2
 _ZN22QDeclarativeGeoAddress13setPostalCodeERK7QString@Qt_5_PRIVATE_API 5.15.2
 _ZN22QDeclarativeGeoAddress13streetChangedEv@Qt_5_PRIVATE_API 5.15.2
 _ZN22QDeclarativeGeoAddress14countryChangedEv@Qt_5_PRIVATE_API 5.15.2
 _ZN22QDeclarativeGeoAddress14setCountryCodeERK7QString@Qt_5_PRIVATE_API 5.15.2
 _ZN22QDeclarativeGeoAddress15districtChangedEv@Qt_5_PRIVATE_API 5.15.2
 _ZN22QDeclarativeGeoAddress16staticMetaObjectE@Qt_5_PRIVATE_API 5.15.2
 _ZN22QDeclarativeGeoAddress17postalCodeChangedEv@Qt_5_PRIVATE_API 5.15.2
 _ZN22QDeclarativeGeoAddress18countryCodeChangedEv@Qt_5_PRIVATE_API 5.15.2
 _ZN22QDeclarativeGeoAddress22isTextGeneratedChangedEv@Qt_5_PRIVATE_API 5.15.2
 _ZN22QDeclarativeGeoAddress7setCityERK7QString@Qt_5_PRIVATE_API 5.15.2
 _ZN22QDeclarativeGeoAddress7setTextERK7QString@Qt_5_PRIVATE_API 5.15.2
 _ZN22QDeclarativeGeoAddress8setStateERK7QString@Qt_5_PRIVATE_API 5.15.2
 _ZN22QDeclarativeGeoAddress9setCountyERK7QString@Qt_5_PRIVATE_API 5.15.2
 _ZN22QDeclarativeGeoAddress9setStreetERK7QString@Qt_5_PRIVATE_API 5.15.2
 _ZN22QDeclarativeGeoAddressC1EP7QObject@Qt_5_PRIVATE_API 5.15.2
 _ZN22QDeclarativeGeoAddressC1ERK11QGeoAddressP7QObject@Qt_5_PRIVATE_API 5.15.2
 _ZN22QDeclarativeGeoAddressC2EP7QObject@Qt_5_PRIVATE_API 5.15.2
 _ZN22QDeclarativeGeoAddressC2ERK11QGeoAddressP7QObject@Qt_5_PRIVATE_API 5.15.2
 _ZN23QDeclarativeGeoLocation10setAddressEP22QDeclarativeGeoAddress@Qt_5_PRIVATE_API 5.15.2
 _ZN23QDeclarativeGeoLocation11qt_metacallEN11QMetaObject4CallEiPPv@Qt_5_PRIVATE_API 5.15.2
 _ZN23QDeclarativeGeoLocation11qt_metacastEPKc@Qt_5_PRIVATE_API 5.15.2
 _ZN23QDeclarativeGeoLocation11setLocationERK12QGeoLocation@Qt_5_PRIVATE_API 5.15.2
 _ZN23QDeclarativeGeoLocation13setCoordinateE14QGeoCoordinate@Qt_5_PRIVATE_API 5.15.2
 _ZN23QDeclarativeGeoLocation14addressChangedEv@Qt_5_PRIVATE_API 5.15.2
 _ZN23QDeclarativeGeoLocation14setBoundingBoxERK13QGeoRectangle@Qt_5_PRIVATE_API 5.15.2
 _ZN23QDeclarativeGeoLocation16staticMetaObjectE@Qt_5_PRIVATE_API 5.15.2
 _ZN23QDeclarativeGeoLocation17coordinateChangedEv@Qt_5_PRIVATE_API 5.15.2
 _ZN23QDeclarativeGeoLocation18boundingBoxChangedEv@Qt_5_PRIVATE_API 5.15.2
 _ZN23QDeclarativeGeoLocation25extendedAttributesChangedEv@Qt_5_PRIVATE_API 5.15.2
 _ZN23QDeclarativeGeoLocationC1EP7QObject@Qt_5_PRIVATE_API 5.15.2
 _ZN23QDeclarativeGeoLocationC1ERK12QGeoLocationP7QObject@Qt_5_PRIVATE_API 5.15.2
 _ZN23QDeclarativeGeoLocationC2EP7QObject@Qt_5_PRIVATE_API 5.15.2
 _ZN23QDeclarativeGeoLocationC2ERK12QGeoLocationP7QObject@Qt_5_PRIVATE_API 5.15.2
 _ZN23QDeclarativeGeoLocationD0Ev@Qt_5_PRIVATE_API 5.15.2
 _ZN23QDeclarativeGeoLocationD1Ev@Qt_5_PRIVATE_API 5.15.2
 _ZN23QDeclarativeGeoLocationD2Ev@Qt_5_PRIVATE_API 5.15.2
 _ZN26QDeclarativePositionSource10parametersEv@Qt_5_PRIVATE_API 5.15.2
 _ZN26QDeclarativePositionSource11nameChangedEv@Qt_5_PRIVATE_API 5.15.2
 _ZN26QDeclarativePositionSource11qt_metacallEN11QMetaObject4CallEiPPv@Qt_5_PRIVATE_API 5.15.2
 _ZN26QDeclarativePositionSource11qt_metacastEPKc@Qt_5_PRIVATE_API 5.15.2
 _ZN26QDeclarativePositionSource11setPositionERK16QGeoPositionInfo@Qt_5_PRIVATE_API 5.15.2
 _ZN26QDeclarativePositionSource11socketErrorEN15QAbstractSocket11SocketErrorE@Qt_5_PRIVATE_API 5.15.2
 _ZN26QDeclarativePositionSource12parameter_atEP16QQmlListPropertyI27QDeclarativePluginParameterEi@Qt_5_PRIVATE_API 5.15.2
 _ZN26QDeclarativePositionSource13activeChangedEv@Qt_5_PRIVATE_API 5.15.2
 _ZN26QDeclarativePositionSource13setNmeaSourceERK4QUrl@Qt_5_PRIVATE_API 5.15.2
 _ZN26QDeclarativePositionSource13updateTimeoutEv@Qt_5_PRIVATE_API 5.15.2
 _ZN26QDeclarativePositionSource15parameter_clearEP16QQmlListPropertyI27QDeclarativePluginParameterE@Qt_5_PRIVATE_API 5.15.2
 _ZN26QDeclarativePositionSource15parameter_countEP16QQmlListPropertyI27QDeclarativePluginParameterE@Qt_5_PRIVATE_API 5.15.2
 _ZN26QDeclarativePositionSource15parametersReadyEv@Qt_5_PRIVATE_API 5.15.2
 _ZN26QDeclarativePositionSource15positionChangedEv@Qt_5_PRIVATE_API 5.15.2
 _ZN26QDeclarativePositionSource15socketConnectedEv@Qt_5_PRIVATE_API 5.15.2
 _ZN26QDeclarativePositionSource15validityChangedEv@Qt_5_PRIVATE_API 5.15.2
 _ZN26QDeclarativePositionSource16parameter_appendEP16QQmlListPropertyI27QDeclarativePluginParameterEPS1_@Qt_5_PRIVATE_API 5.15.2
 _ZN26QDeclarativePositionSource16staticMetaObjectE@Qt_5_PRIVATE_API 5.15.2
 _ZN26QDeclarativePositionSource17componentCompleteEv@Qt_5_PRIVATE_API 5.15.2
 _ZN26QDeclarativePositionSource17nmeaSourceChangedEv@Qt_5_PRIVATE_API 5.15.2
 _ZN26QDeclarativePositionSource17setUpdateIntervalEi@Qt_5_PRIVATE_API 5.15.2
 _ZN26QDeclarativePositionSource18setBackendPropertyERK7QStringRK8QVariant@Qt_5_PRIVATE_API 5.15.2
 _ZN26QDeclarativePositionSource18sourceErrorChangedEv@Qt_5_PRIVATE_API 5.15.2
 _ZN26QDeclarativePositionSource19sourceErrorReceivedEN22QGeoPositionInfoSource5ErrorE@Qt_5_PRIVATE_API 5.15.2
 _ZN26QDeclarativePositionSource21updateIntervalChangedEv@Qt_5_PRIVATE_API 5.15.2
 _ZN26QDeclarativePositionSource21updateTimeoutReceivedEv@Qt_5_PRIVATE_API 5.15.2
 _ZN26QDeclarativePositionSource22onParameterInitializedEv@Qt_5_PRIVATE_API 5.15.2
 _ZN26QDeclarativePositionSource22positionUpdateReceivedERK16QGeoPositionInfo@Qt_5_PRIVATE_API 5.15.2
 _ZN26QDeclarativePositionSource30setPreferredPositioningMethodsE6QFlagsINS_17PositioningMethodEE@Qt_5_PRIVATE_API 5.15.2
 _ZN26QDeclarativePositionSource34preferredPositioningMethodsChangedEv@Qt_5_PRIVATE_API 5.15.2
 _ZN26QDeclarativePositionSource34supportedPositioningMethodsChangedEv@Qt_5_PRIVATE_API 5.15.2
 _ZN26QDeclarativePositionSource4stopEv@Qt_5_PRIVATE_API 5.15.2
 _ZN26QDeclarativePositionSource5startEv@Qt_5_PRIVATE_API 5.15.2
 _ZN26QDeclarativePositionSource6updateEv@Qt_5_PRIVATE_API 5.15.2
 _ZN26QDeclarativePositionSource7setNameERK7QString@Qt_5_PRIVATE_API 5.15.2
 _ZN26QDeclarativePositionSource8positionEv@Qt_5_PRIVATE_API 5.15.2
 _ZN26QDeclarativePositionSource9setActiveEb@Qt_5_PRIVATE_API 5.15.2
 _ZN26QDeclarativePositionSource9setSourceEP22QGeoPositionInfoSource@Qt_5_PRIVATE_API 5.15.2
 _ZN26QDeclarativePositionSource9tryAttachERK7QStringb@Qt_5_PRIVATE_API 5.15.2
 _ZN26QDeclarativePositionSourceC1Ev@Qt_5_PRIVATE_API 5.15.2
 _ZN26QDeclarativePositionSourceC2Ev@Qt_5_PRIVATE_API 5.15.2
 _ZN26QDeclarativePositionSourceD0Ev@Qt_5_PRIVATE_API 5.15.2
 _ZN26QDeclarativePositionSourceD1Ev@Qt_5_PRIVATE_API 5.15.2
 _ZN26QDeclarativePositionSourceD2Ev@Qt_5_PRIVATE_API 5.15.2
 _ZN27QDeclarativePluginParameter11initializedEv@Qt_5_PRIVATE_API 5.15.2
 _ZN27QDeclarativePluginParameter11nameChangedERK7QString@Qt_5_PRIVATE_API 5.15.2
 _ZN27QDeclarativePluginParameter11qt_metacallEN11QMetaObject4CallEiPPv@Qt_5_PRIVATE_API 5.15.2
 _ZN27QDeclarativePluginParameter11qt_metacastEPKc@Qt_5_PRIVATE_API 5.15.2
 _ZN27QDeclarativePluginParameter12valueChangedERK8QVariant@Qt_5_PRIVATE_API 5.15.2
 _ZN27QDeclarativePluginParameter16staticMetaObjectE@Qt_5_PRIVATE_API 5.15.2
 _ZN27QDeclarativePluginParameter7setNameERK7QString@Qt_5_PRIVATE_API 5.15.2
 _ZN27QDeclarativePluginParameter8setValueERK8QVariant@Qt_5_PRIVATE_API 5.15.2
 _ZN27QDeclarativePluginParameterC1EP7QObject@Qt_5_PRIVATE_API 5.15.2
 _ZN27QDeclarativePluginParameterC2EP7QObject@Qt_5_PRIVATE_API 5.15.2
 _ZN27QDeclarativePluginParameterD0Ev@Qt_5_PRIVATE_API 5.15.2
 _ZN27QDeclarativePluginParameterD1Ev@Qt_5_PRIVATE_API 5.15.2
 _ZN27QDeclarativePluginParameterD2Ev@Qt_5_PRIVATE_API 5.15.2
 _ZN28QQuickGeoCoordinateAnimation11qt_metacallEN11QMetaObject4CallEiPPv@Qt_5_PRIVATE_API 5.15.2
 _ZN28QQuickGeoCoordinateAnimation11qt_metacastEPKc@Qt_5_PRIVATE_API 5.15.2
 _ZN28QQuickGeoCoordinateAnimation12setDirectionENS_9DirectionE@Qt_5_PRIVATE_API 5.15.2
 _ZN28QQuickGeoCoordinateAnimation16directionChangedEv@Qt_5_PRIVATE_API 5.15.2
 _ZN28QQuickGeoCoordinateAnimation16staticMetaObjectE@Qt_5_PRIVATE_API 5.15.2
 _ZN28QQuickGeoCoordinateAnimation5setToERK14QGeoCoordinate@Qt_5_PRIVATE_API 5.15.2
 _ZN28QQuickGeoCoordinateAnimation7setFromERK14QGeoCoordinate@Qt_5_PRIVATE_API 5.15.2
 _ZN28QQuickGeoCoordinateAnimationC1EP7QObject@Qt_5_PRIVATE_API 5.15.2
 _ZN28QQuickGeoCoordinateAnimationC2EP7QObject@Qt_5_PRIVATE_API 5.15.2
 _ZN28QQuickGeoCoordinateAnimationD0Ev@Qt_5_PRIVATE_API 5.15.2
 _ZN28QQuickGeoCoordinateAnimationD1Ev@Qt_5_PRIVATE_API 5.15.2
 _ZN28QQuickGeoCoordinateAnimationD2Ev@Qt_5_PRIVATE_API 5.15.2
 _ZNK20QDeclarativePosition10metaObjectEv@Qt_5_PRIVATE_API 5.15.2
 _ZNK20QDeclarativePosition12isSpeedValidEv@Qt_5_PRIVATE_API 5.15.2
 _ZNK20QDeclarativePosition13verticalSpeedEv@Qt_5_PRIVATE_API 5.15.2
 _ZNK20QDeclarativePosition15isAltitudeValidEv@Qt_5_PRIVATE_API 5.15.2
 _ZNK20QDeclarativePosition15isLatitudeValidEv@Qt_5_PRIVATE_API 5.15.2
 _ZNK20QDeclarativePosition16isDirectionValidEv@Qt_5_PRIVATE_API 5.15.2
 _ZNK20QDeclarativePosition16isLongitudeValidEv@Qt_5_PRIVATE_API 5.15.2
 _ZNK20QDeclarativePosition16verticalAccuracyEv@Qt_5_PRIVATE_API 5.15.2
 _ZNK20QDeclarativePosition17magneticVariationEv@Qt_5_PRIVATE_API 5.15.2
 _ZNK20QDeclarativePosition18horizontalAccuracyEv@Qt_5_PRIVATE_API 5.15.2
 _ZNK20QDeclarativePosition20isVerticalSpeedValidEv@Qt_5_PRIVATE_API 5.15.2
 _ZNK20QDeclarativePosition23isVerticalAccuracyValidEv@Qt_5_PRIVATE_API 5.15.2
 _ZNK20QDeclarativePosition24isMagneticVariationValidEv@Qt_5_PRIVATE_API 5.15.2
 _ZNK20QDeclarativePosition25isHorizontalAccuracyValidEv@Qt_5_PRIVATE_API 5.15.2
 _ZNK20QDeclarativePosition5speedEv@Qt_5_PRIVATE_API 5.15.2
 _ZNK20QDeclarativePosition8positionEv@Qt_5_PRIVATE_API 5.15.2
 _ZNK20QDeclarativePosition9directionEv@Qt_5_PRIVATE_API 5.15.2
 _ZNK20QDeclarativePosition9timestampEv@Qt_5_PRIVATE_API 5.15.2
 _ZNK22QDeclarativeGeoAddress10metaObjectEv@Qt_5_PRIVATE_API 5.15.2
 _ZNK22QDeclarativeGeoAddress10postalCodeEv@Qt_5_PRIVATE_API 5.15.2
 _ZNK22QDeclarativeGeoAddress11countryCodeEv@Qt_5_PRIVATE_API 5.15.2
 _ZNK22QDeclarativeGeoAddress15isTextGeneratedEv@Qt_5_PRIVATE_API 5.15.2
 _ZNK22QDeclarativeGeoAddress4cityEv@Qt_5_PRIVATE_API 5.15.2
 _ZNK22QDeclarativeGeoAddress4textEv@Qt_5_PRIVATE_API 5.15.2
 _ZNK22QDeclarativeGeoAddress5stateEv@Qt_5_PRIVATE_API 5.15.2
 _ZNK22QDeclarativeGeoAddress6countyEv@Qt_5_PRIVATE_API 5.15.2
 _ZNK22QDeclarativeGeoAddress6streetEv@Qt_5_PRIVATE_API 5.15.2
 _ZNK22QDeclarativeGeoAddress7addressEv@Qt_5_PRIVATE_API 5.15.2
 _ZNK22QDeclarativeGeoAddress7countryEv@Qt_5_PRIVATE_API 5.15.2
 _ZNK22QDeclarativeGeoAddress8districtEv@Qt_5_PRIVATE_API 5.15.2
 _ZNK23QDeclarativeGeoLocation10coordinateEv@Qt_5_PRIVATE_API 5.15.2
 _ZNK23QDeclarativeGeoLocation10metaObjectEv@Qt_5_PRIVATE_API 5.15.2
 _ZNK23QDeclarativeGeoLocation11boundingBoxEv@Qt_5_PRIVATE_API 5.15.2
 _ZNK23QDeclarativeGeoLocation7addressEv@Qt_5_PRIVATE_API 5.15.2
 _ZNK23QDeclarativeGeoLocation8locationEv@Qt_5_PRIVATE_API 5.15.2
 _ZNK26QDeclarativePositionSource10metaObjectEv@Qt_5_PRIVATE_API 5.15.2
 _ZNK26QDeclarativePositionSource10nmeaSourceEv@Qt_5_PRIVATE_API 5.15.2
 _ZNK26QDeclarativePositionSource11sourceErrorEv@Qt_5_PRIVATE_API 5.15.2
 _ZNK26QDeclarativePositionSource12parameterMapEv@Qt_5_PRIVATE_API 5.15.2
 _ZNK26QDeclarativePositionSource14positionSourceEv@Qt_5_PRIVATE_API 5.15.2
 _ZNK26QDeclarativePositionSource14updateIntervalEv@Qt_5_PRIVATE_API 5.15.2
 _ZNK26QDeclarativePositionSource15backendPropertyERK7QString@Qt_5_PRIVATE_API 5.15.2
 _ZNK26QDeclarativePositionSource27preferredPositioningMethodsEv@Qt_5_PRIVATE_API 5.15.2
 _ZNK26QDeclarativePositionSource27supportedPositioningMethodsEv@Qt_5_PRIVATE_API 5.15.2
 _ZNK26QDeclarativePositionSource4nameEv@Qt_5_PRIVATE_API 5.15.2
 _ZNK26QDeclarativePositionSource7isValidEv@Qt_5_PRIVATE_API 5.15.2
 _ZNK26QDeclarativePositionSource8isActiveEv@Qt_5_PRIVATE_API 5.15.2
 _ZNK27QDeclarativePluginParameter10metaObjectEv@Qt_5_PRIVATE_API 5.15.2
 _ZNK27QDeclarativePluginParameter13isInitializedEv@Qt_5_PRIVATE_API 5.15.2
 _ZNK27QDeclarativePluginParameter4nameEv@Qt_5_PRIVATE_API 5.15.2
 _ZNK27QDeclarativePluginParameter5valueEv@Qt_5_PRIVATE_API 5.15.2
 _ZNK28QQuickGeoCoordinateAnimation10metaObjectEv@Qt_5_PRIVATE_API 5.15.2
 _ZNK28QQuickGeoCoordinateAnimation2toEv@Qt_5_PRIVATE_API 5.15.2
 _ZNK28QQuickGeoCoordinateAnimation4fromEv@Qt_5_PRIVATE_API 5.15.2
 _ZNK28QQuickGeoCoordinateAnimation9directionEv@Qt_5_PRIVATE_API 5.15.2
 _ZTI20QDeclarativePosition@Qt_5_PRIVATE_API 5.15.2
 _ZTI22QDeclarativeGeoAddress@Qt_5_PRIVATE_API 5.15.2
 _ZTI23QDeclarativeGeoLocation@Qt_5_PRIVATE_API 5.15.2
 _ZTI26QDeclarativePositionSource@Qt_5_PRIVATE_API 5.15.2
 _ZTI27QDeclarativePluginParameter@Qt_5_PRIVATE_API 5.15.2
 _ZTI28QQuickGeoCoordinateAnimation@Qt_5_PRIVATE_API 5.15.2
 _ZTS20QDeclarativePosition@Qt_5_PRIVATE_API 5.15.2
 _ZTS22QDeclarativeGeoAddress@Qt_5_PRIVATE_API 5.15.2
 _ZTS23QDeclarativeGeoLocation@Qt_5_PRIVATE_API 5.15.2
 _ZTS26QDeclarativePositionSource@Qt_5_PRIVATE_API 5.15.2
 _ZTS27QDeclarativePluginParameter@Qt_5_PRIVATE_API 5.15.2
 _ZTS28QQuickGeoCoordinateAnimation@Qt_5_PRIVATE_API 5.15.2
 _ZTV20QDeclarativePosition@Qt_5_PRIVATE_API 5.15.2
 _ZTV22QDeclarativeGeoAddress@Qt_5_PRIVATE_API 5.15.2
 _ZTV23QDeclarativeGeoLocation@Qt_5_PRIVATE_API 5.15.2
 _ZTV26QDeclarativePositionSource@Qt_5_PRIVATE_API 5.15.2
 _ZTV27QDeclarativePluginParameter@Qt_5_PRIVATE_API 5.15.2
 _ZTV28QQuickGeoCoordinateAnimation@Qt_5_PRIVATE_API 5.15.2
 (c++)"non-virtual thunk to QDeclarativePositionSource::componentComplete()@Qt_5_PRIVATE_API" 5.15.2
 (c++)"non-virtual thunk to QDeclarativePositionSource::~QDeclarativePositionSource()@Qt_5_PRIVATE_API" 5.15.2
 (c++)"non-virtual thunk to QQuickGeoCoordinateAnimation::~QQuickGeoCoordinateAnimation()@Qt_5_PRIVATE_API" 5.15.2
